target datalayout = "e-m:e-p270:32:32-p271:32:32-p272:64:64-i64:64-i128:128-f80:128-n8:16:32:64-S128"
target triple = "x86_64-unknown-linux-gnu"

%"class.folly::Range" = type { ptr, ptr }
%"class.std::__cxx11::basic_string" = type { %"struct.std::__cxx11::basic_string<char>::_Alloc_hider", i64, %union.anon }
%"struct.std::__cxx11::basic_string<char>::_Alloc_hider" = type { ptr }
%union.anon = type { i64, [8 x i8] }
%"class.proxygen::ParseURL" = type <{ %"class.folly::Range", %"class.folly::Range", %"class.std::__cxx11::basic_string", %"class.folly::Range", %"class.folly::Range", %"class.folly::Range", %"class.folly::Range", %"class.folly::Range", i16, i8, i8, [4 x i8] }>
%"class.std::out_of_range" = type { %"class.std::logic_error" }
%"class.std::logic_error" = type { %"class.std::exception", %"struct.std::__cow_string" }
%"class.std::exception" = type { ptr }
%"struct.std::__cow_string" = type { %union.anon.2 }
%union.anon.2 = type { ptr }

@.str.5 = private unnamed_addr constant [19 x i8] c"index out of range\00", align 1
@_ZTISt12out_of_range = external constant ptr
@_ZTVSt12out_of_range = external unnamed_addr constant { [5 x ptr] }, align 8

; Function Attrs: mustprogress nounwind uwtable
define linkonce_odr void @_ZNSt12out_of_rangeC2EOS_(ptr noundef nonnull align 8 dereferenceable(16) %this, ptr noundef nonnull align 8 dereferenceable(16) %0) unnamed_addr #0 comdat align 2 {
entry:
  %this.addr = alloca ptr, align 8
  %.addr = alloca ptr, align 8
  store ptr %this, ptr %this.addr, align 8
  store ptr %0, ptr %.addr, align 8
  %this1 = load ptr, ptr %this.addr, align 8
  %1 = load ptr, ptr %.addr, align 8
  call void @_ZNSt11logic_errorC2EOS_(ptr noundef nonnull align 8 dereferenceable(16) %this1, ptr noundef nonnull align 8 dereferenceable(16) %1) #12
  store ptr getelementptr inbounds ({ [5 x ptr] }, ptr @_ZTVSt12out_of_range, i32 0, i32 0, i32 2), ptr %this1, align 8
  ret void
}

; Function Attrs: mustprogress nounwind uwtable
define linkonce_odr void @_ZSt9__advanceIPKclEvRT_T0_St26random_access_iterator_tag(ptr noundef nonnull align 8 dereferenceable(8) %__i, i64 noundef %__n) #0 comdat {
entry:
  %__i.addr = alloca ptr, align 8
  %__n.addr = alloca i64, align 8
  store ptr %__i, ptr %__i.addr, align 8
  store i64 %__n, ptr %__n.addr, align 8
  %0 = load i64, ptr %__n.addr, align 8
  %1 = call i1 @llvm.is.constant.i64(i64 %0)
  br i1 %1, label %land.lhs.true, label %if.else

land.lhs.true:                                    ; preds = %entry
  %2 = load i64, ptr %__n.addr, align 8
  %cmp = icmp eq i64 %2, 1
  br i1 %cmp, label %if.then, label %if.else

if.then:                                          ; preds = %land.lhs.true
  %3 = load ptr, ptr %__i.addr, align 8
  %4 = load ptr, ptr %3, align 8
  %incdec.ptr = getelementptr inbounds i8, ptr %4, i32 1
  store ptr %incdec.ptr, ptr %3, align 8
  br label %if.end6

if.else:                                          ; preds = %land.lhs.true, %entry
  %5 = load i64, ptr %__n.addr, align 8
  %6 = call i1 @llvm.is.constant.i64(i64 %5)
  br i1 %6, label %land.lhs.true1, label %if.else5

land.lhs.true1:                                   ; preds = %if.else
  %7 = load i64, ptr %__n.addr, align 8
  %cmp2 = icmp eq i64 %7, -1
  br i1 %cmp2, label %if.then3, label %if.else5

if.then3:                                         ; preds = %land.lhs.true1
  %8 = load ptr, ptr %__i.addr, align 8
  %9 = load ptr, ptr %8, align 8
  %incdec.ptr4 = getelementptr inbounds i8, ptr %9, i32 -1
  store ptr %incdec.ptr4, ptr %8, align 8
  br label %if.end

if.else5:                                         ; preds = %land.lhs.true1, %if.else
  %10 = load i64, ptr %__n.addr, align 8
  %11 = load ptr, ptr %__i.addr, align 8
  %12 = load ptr, ptr %11, align 8
  %add.ptr = getelementptr inbounds i8, ptr %12, i64 %10
  store ptr %add.ptr, ptr %11, align 8
  br label %if.end

if.end:                                           ; preds = %if.else5, %if.then3
  br label %if.end6

if.end6:                                          ; preds = %if.end, %if.then
  ret void
}

; Function Attrs: mustprogress nounwind uwtable
define linkonce_odr void @_ZSt19__iterator_categoryIPKcENSt15iterator_traitsIT_E17iterator_categoryERKS3_(ptr noundef nonnull align 8 dereferenceable(8) %0) #0 comdat {
entry:
  %.addr = alloca ptr, align 8
  store ptr %0, ptr %.addr, align 8
  ret void
}

; Function Attrs: cold mustprogress noreturn uwtable
define linkonce_odr void @_ZN5folly15throw_exceptionISt12out_of_rangeEEvOT_(ptr noundef nonnull align 8 dereferenceable(16) %ex) #8 comdat {
entry:
  %ex.addr = alloca ptr, align 8
  store ptr %ex, ptr %ex.addr, align 8
  %exception = call ptr @__cxa_allocate_exception(i64 16) #12
  %0 = load ptr, ptr %ex.addr, align 8
  call void @_ZNSt12out_of_rangeC2EOS_(ptr noundef nonnull align 8 dereferenceable(16) %exception, ptr noundef nonnull align 8 dereferenceable(16) %0) #12
  call void @__cxa_throw(ptr %exception, ptr @_ZTISt12out_of_range, ptr @_ZNSt12out_of_rangeD1Ev) #16
  unreachable
}

; Function Attrs: mustprogress uwtable
define linkonce_odr void @_ZSt7advanceIPKclEvRT_T0_(ptr noundef nonnull align 8 dereferenceable(8) %__i, i64 noundef %__n) #3 comdat {
entry:
  %__i.addr = alloca ptr, align 8
  %__n.addr = alloca i64, align 8
  %__d = alloca i64, align 8
  store ptr %__i, ptr %__i.addr, align 8
  store i64 %__n, ptr %__n.addr, align 8
  %0 = load i64, ptr %__n.addr, align 8
  store i64 %0, ptr %__d, align 8
  %1 = load ptr, ptr %__i.addr, align 8
  %2 = load i64, ptr %__d, align 8
  %3 = load ptr, ptr %__i.addr, align 8
  call void @_ZSt19__iterator_categoryIPKcENSt15iterator_traitsIT_E17iterator_categoryERKS3_(ptr noundef nonnull align 8 dereferenceable(8) %3)
  call void @_ZSt9__advanceIPKclEvRT_T0_St26random_access_iterator_tag(ptr noundef nonnull align 8 dereferenceable(8) %1, i64 noundef %2)
  ret void
}

; Function Attrs: mustprogress nounwind uwtable
define linkonce_odr void @_ZN5folly5RangeIPKcEC2ES2_m(ptr noundef nonnull align 8 dereferenceable(16) %this, ptr noundef %start, i64 noundef %size) unnamed_addr #0 comdat align 2 {
entry:
  %this.addr = alloca ptr, align 8
  %start.addr = alloca ptr, align 8
  %size.addr = alloca i64, align 8
  store ptr %this, ptr %this.addr, align 8
  store ptr %start, ptr %start.addr, align 8
  store i64 %size, ptr %size.addr, align 8
  %this1 = load ptr, ptr %this.addr, align 8
  %b_ = getelementptr inbounds %"class.folly::Range", ptr %this1, i32 0, i32 0
  %0 = load ptr, ptr %start.addr, align 8
  store ptr %0, ptr %b_, align 8
  %e_ = getelementptr inbounds %"class.folly::Range", ptr %this1, i32 0, i32 1
  %1 = load ptr, ptr %start.addr, align 8
  %2 = load i64, ptr %size.addr, align 8
  %add.ptr = getelementptr inbounds i8, ptr %1, i64 %2
  store ptr %add.ptr, ptr %e_, align 8
  ret void
}

; Function Attrs: mustprogress nounwind uwtable
define linkonce_odr noundef nonnull align 8 dereferenceable(8) ptr @_ZSt3minImERKT_S2_S2_(ptr noundef nonnull align 8 dereferenceable(8) %__a, ptr noundef nonnull align 8 dereferenceable(8) %__b) #0 comdat {
entry:
  %retval = alloca ptr, align 8
  %__a.addr = alloca ptr, align 8
  %__b.addr = alloca ptr, align 8
  store ptr %__a, ptr %__a.addr, align 8
  store ptr %__b, ptr %__b.addr, align 8
  %0 = load ptr, ptr %__b.addr, align 8
  %1 = load i64, ptr %0, align 8
  %2 = load ptr, ptr %__a.addr, align 8
  %3 = load i64, ptr %2, align 8
  %cmp = icmp ult i64 %1, %3
  br i1 %cmp, label %if.then, label %if.end

if.then:                                          ; preds = %entry
  %4 = load ptr, ptr %__b.addr, align 8
  store ptr %4, ptr %retval, align 8
  br label %return

if.end:                                           ; preds = %entry
  %5 = load ptr, ptr %__a.addr, align 8
  store ptr %5, ptr %retval, align 8
  br label %return

return:                                           ; preds = %if.end, %if.then
  %6 = load ptr, ptr %retval, align 8
  ret ptr %6
}

; Function Attrs: cold mustprogress noreturn uwtable
define linkonce_odr void @_ZN5folly6detail16throw_exception_ISt12out_of_rangeJPKcEEEvDpT0_(ptr noundef %args) #8 comdat personality ptr @__gxx_personality_v0 {
entry:
  %args.addr = alloca ptr, align 8
  %ref.tmp = alloca %"class.std::out_of_range", align 8
  %exn.slot = alloca ptr, align 8
  %ehselector.slot = alloca i32, align 4
  store ptr %args, ptr %args.addr, align 8
  %0 = load ptr, ptr %args.addr, align 8
  call void @_ZNSt12out_of_rangeC1EPKc(ptr noundef nonnull align 8 dereferenceable(16) %ref.tmp, ptr noundef %0)
  invoke void @_ZN5folly15throw_exceptionISt12out_of_rangeEEvOT_(ptr noundef nonnull align 8 dereferenceable(16) %ref.tmp) #14
          to label %invoke.cont unwind label %lpad

invoke.cont:                                      ; preds = %entry
  unreachable

lpad:                                             ; preds = %entry
  %1 = landingpad { ptr, i32 }
          cleanup
  %2 = extractvalue { ptr, i32 } %1, 0
  store ptr %2, ptr %exn.slot, align 8
  %3 = extractvalue { ptr, i32 } %1, 1
  store i32 %3, ptr %ehselector.slot, align 4
  call void @_ZNSt12out_of_rangeD1Ev(ptr noundef nonnull align 8 dereferenceable(16) %ref.tmp) #12
  br label %eh.resume

eh.resume:                                        ; preds = %lpad
  %exn = load ptr, ptr %exn.slot, align 8
  %sel = load i32, ptr %ehselector.slot, align 4
  %lpad.val = insertvalue { ptr, i32 } poison, ptr %exn, 0
  %lpad.val1 = insertvalue { ptr, i32 } %lpad.val, i32 %sel, 1
  resume { ptr, i32 } %lpad.val1
}

; Function Attrs: mustprogress uwtable
define linkonce_odr noundef ptr @_ZSt4prevIPKcET_S2_NSt15iterator_traitsIS2_E15difference_typeE(ptr noundef %__x, i64 noundef %__n) #3 comdat {
entry:
  %__x.addr = alloca ptr, align 8
  %__n.addr = alloca i64, align 8
  store ptr %__x, ptr %__x.addr, align 8
  store i64 %__n, ptr %__n.addr, align 8
  %0 = load i64, ptr %__n.addr, align 8
  %sub = sub nsw i64 0, %0
  call void @_ZSt7advanceIPKclEvRT_T0_(ptr noundef nonnull align 8 dereferenceable(8) %__x.addr, i64 noundef %sub)
  %1 = load ptr, ptr %__x.addr, align 8
  ret ptr %1
}

; Function Attrs: noreturn nounwind uwtable
define linkonce_odr hidden void @__clang_call_terminate(ptr noundef %0) #1 comdat {
  %2 = call ptr @__cxa_begin_catch(ptr %0) #12
  call void @_ZSt9terminatev() #13
  unreachable
}

; Function Attrs: mustprogress uwtable
define linkonce_odr { ptr, ptr } @_ZNK5folly5RangeIPKcE8subpieceEmm(ptr noundef nonnull align 8 dereferenceable(16) %this, i64 noundef %first, i64 noundef %length) #3 comdat align 2 {
entry:
  %args.addr.i = alloca ptr, align 8
  %retval = alloca %"class.folly::Range", align 8
  %this.addr = alloca ptr, align 8
  %first.addr = alloca i64, align 8
  %length.addr = alloca i64, align 8
  %ref.tmp = alloca i64, align 8
  store ptr %this, ptr %this.addr, align 8
  store i64 %first, ptr %first.addr, align 8
  store i64 %length, ptr %length.addr, align 8
  %this1 = load ptr, ptr %this.addr, align 8
  %0 = load i64, ptr %first.addr, align 8
  %call = call noundef i64 @_ZNK5folly5RangeIPKcE4sizeEv(ptr noundef nonnull align 8 dereferenceable(16) %this1)
  %cmp = icmp ugt i64 %0, %call
  br i1 %cmp, label %if.then, label %if.end

if.then:                                          ; preds = %entry
  store ptr @.str.5, ptr %args.addr.i, align 8
  %1 = load ptr, ptr %args.addr.i, align 8
  call void @_ZN5folly6detail16throw_exception_ISt12out_of_rangeJPKcEEEvDpT0_(ptr noundef %1) #14
  unreachable

_ZN5folly15throw_exceptionISt12out_of_rangeJRA19_KcEEEvDpOT0_.exit: ; No predecessors!
  unreachable

if.end:                                           ; preds = %entry
  %b_ = getelementptr inbounds %"class.folly::Range", ptr %this1, i32 0, i32 0
  %2 = load ptr, ptr %b_, align 8
  %3 = load i64, ptr %first.addr, align 8
  %add.ptr = getelementptr inbounds i8, ptr %2, i64 %3
  %call2 = call noundef i64 @_ZNK5folly5RangeIPKcE4sizeEv(ptr noundef nonnull align 8 dereferenceable(16) %this1)
  %4 = load i64, ptr %first.addr, align 8
  %sub = sub i64 %call2, %4
  store i64 %sub, ptr %ref.tmp, align 8
  %call3 = call noundef nonnull align 8 dereferenceable(8) ptr @_ZSt3minImERKT_S2_S2_(ptr noundef nonnull align 8 dereferenceable(8) %length.addr, ptr noundef nonnull align 8 dereferenceable(8) %ref.tmp)
  %5 = load i64, ptr %call3, align 8
  call void @_ZN5folly5RangeIPKcEC2ES2_m(ptr noundef nonnull align 8 dereferenceable(16) %retval, ptr noundef %add.ptr, i64 noundef %5)
  %6 = load { ptr, ptr }, ptr %retval, align 8
  ret { ptr, ptr } %6
}

; Function Attrs: mustprogress nounwind uwtable
define linkonce_odr noundef i64 @_ZNK5folly5RangeIPKcE4sizeEv(ptr noundef nonnull align 8 dereferenceable(16) %this) #0 comdat align 2 {
entry:
  %this.addr = alloca ptr, align 8
  store ptr %this, ptr %this.addr, align 8
  %this1 = load ptr, ptr %this.addr, align 8
  %e_ = getelementptr inbounds %"class.folly::Range", ptr %this1, i32 0, i32 1
  %0 = load ptr, ptr %e_, align 8
  %b_ = getelementptr inbounds %"class.folly::Range", ptr %this1, i32 0, i32 0
  %1 = load ptr, ptr %b_, align 8
  %sub.ptr.lhs.cast = ptrtoint ptr %0 to i64
  %sub.ptr.rhs.cast = ptrtoint ptr %1 to i64
  %sub.ptr.sub = sub i64 %sub.ptr.lhs.cast, %sub.ptr.rhs.cast
  ret i64 %sub.ptr.sub
}

; Function Attrs: mustprogress uwtable
define linkonce_odr noundef nonnull align 1 dereferenceable(1) ptr @_ZN5folly5RangeIPKcE4backEv(ptr noundef nonnull align 8 dereferenceable(16) %this) #3 comdat align 2 {
entry:
  %this.addr = alloca ptr, align 8
  store ptr %this, ptr %this.addr, align 8
  %this1 = load ptr, ptr %this.addr, align 8
  %e_ = getelementptr inbounds %"class.folly::Range", ptr %this1, i32 0, i32 1
  %0 = load ptr, ptr %e_, align 8
  %call = call noundef ptr @_ZSt4prevIPKcET_S2_NSt15iterator_traitsIS2_E15difference_typeE(ptr noundef %0, i64 noundef 1)
  ret ptr %call
}

; Function Attrs: mustprogress nounwind uwtable
define linkonce_odr noundef nonnull align 1 dereferenceable(1) ptr @_ZN5folly5RangeIPKcE5frontEv(ptr noundef nonnull align 8 dereferenceable(16) %this) #0 comdat align 2 {
entry:
  %this.addr = alloca ptr, align 8
  store ptr %this, ptr %this.addr, align 8
  %this1 = load ptr, ptr %this.addr, align 8
  %b_ = getelementptr inbounds %"class.folly::Range", ptr %this1, i32 0, i32 0
  %0 = load ptr, ptr %b_, align 8
  ret ptr %0
}

; Function Attrs: mustprogress nounwind uwtable
define linkonce_odr noundef zeroext i1 @_ZNK5folly5RangeIPKcE5emptyEv(ptr noundef nonnull align 8 dereferenceable(16) %this) #0 comdat align 2 {
entry:
  %this.addr = alloca ptr, align 8
  store ptr %this, ptr %this.addr, align 8
  %this1 = load ptr, ptr %this.addr, align 8
  %b_ = getelementptr inbounds %"class.folly::Range", ptr %this1, i32 0, i32 0
  %0 = load ptr, ptr %b_, align 8
  %e_ = getelementptr inbounds %"class.folly::Range", ptr %this1, i32 0, i32 1
  %1 = load ptr, ptr %e_, align 8
  %cmp = icmp eq ptr %0, %1
  ret i1 %cmp
}

; Function Attrs: mustprogress nounwind uwtable
define void @_ZN8proxygen8ParseURL13stripBracketsEv(ptr noundef nonnull align 8 dereferenceable(148) %this) #0 align 2 personality ptr @__gxx_personality_v0 {
entry:
  %this.addr = alloca ptr, align 8
  %ref.tmp = alloca %"class.folly::Range", align 8
  store ptr %this, ptr %this.addr, align 8
  %this1 = load ptr, ptr %this.addr, align 8
  %hostNoBrackets_ = getelementptr inbounds %"class.proxygen::ParseURL", ptr %this1, i32 0, i32 4
  %call = invoke noundef zeroext i1 @_ZNK5folly5RangeIPKcE5emptyEv(ptr noundef nonnull align 8 dereferenceable(16) %hostNoBrackets_)
          to label %invoke.cont unwind label %terminate.lpad

invoke.cont:                                      ; preds = %entry
  br i1 %call, label %if.then, label %if.end23

if.then:                                          ; preds = %invoke.cont
  %host_ = getelementptr inbounds %"class.proxygen::ParseURL", ptr %this1, i32 0, i32 3
  %call3 = invoke noundef zeroext i1 @_ZNK5folly5RangeIPKcE5emptyEv(ptr noundef nonnull align 8 dereferenceable(16) %host_)
          to label %invoke.cont2 unwind label %terminate.lpad

invoke.cont2:                                     ; preds = %if.then
  br i1 %call3, label %if.else, label %land.lhs.true

land.lhs.true:                                    ; preds = %invoke.cont2
  %host_4 = getelementptr inbounds %"class.proxygen::ParseURL", ptr %this1, i32 0, i32 3
  %call6 = invoke noundef nonnull align 1 dereferenceable(1) ptr @_ZN5folly5RangeIPKcE5frontEv(ptr noundef nonnull align 8 dereferenceable(16) %host_4)
          to label %invoke.cont5 unwind label %terminate.lpad

invoke.cont5:                                     ; preds = %land.lhs.true
  %0 = load i8, ptr %call6, align 1
  %conv = sext i8 %0 to i32
  %cmp = icmp eq i32 %conv, 91
  br i1 %cmp, label %land.lhs.true7, label %if.else

land.lhs.true7:                                   ; preds = %invoke.cont5
  %host_8 = getelementptr inbounds %"class.proxygen::ParseURL", ptr %this1, i32 0, i32 3
  %call10 = invoke noundef nonnull align 1 dereferenceable(1) ptr @_ZN5folly5RangeIPKcE4backEv(ptr noundef nonnull align 8 dereferenceable(16) %host_8)
          to label %invoke.cont9 unwind label %terminate.lpad

invoke.cont9:                                     ; preds = %land.lhs.true7
  %1 = load i8, ptr %call10, align 1
  %conv11 = sext i8 %1 to i32
  %cmp12 = icmp eq i32 %conv11, 93
  br i1 %cmp12, label %if.then13, label %if.else

if.then13:                                        ; preds = %invoke.cont9
  %host_14 = getelementptr inbounds %"class.proxygen::ParseURL", ptr %this1, i32 0, i32 3
  %host_15 = getelementptr inbounds %"class.proxygen::ParseURL", ptr %this1, i32 0, i32 3
  %call17 = invoke noundef i64 @_ZNK5folly5RangeIPKcE4sizeEv(ptr noundef nonnull align 8 dereferenceable(16) %host_15)
          to label %invoke.cont16 unwind label %terminate.lpad

invoke.cont16:                                    ; preds = %if.then13
  %sub = sub i64 %call17, 2
  %call19 = invoke { ptr, ptr } @_ZNK5folly5RangeIPKcE8subpieceEmm(ptr noundef nonnull align 8 dereferenceable(16) %host_14, i64 noundef 1, i64 noundef %sub)
          to label %invoke.cont18 unwind label %terminate.lpad

invoke.cont18:                                    ; preds = %invoke.cont16
  %2 = getelementptr inbounds { ptr, ptr }, ptr %ref.tmp, i32 0, i32 0
  %3 = extractvalue { ptr, ptr } %call19, 0
  store ptr %3, ptr %2, align 8
  %4 = getelementptr inbounds { ptr, ptr }, ptr %ref.tmp, i32 0, i32 1
  %5 = extractvalue { ptr, ptr } %call19, 1
  store ptr %5, ptr %4, align 8
  %hostNoBrackets_20 = getelementptr inbounds %"class.proxygen::ParseURL", ptr %this1, i32 0, i32 4
  call void @llvm.memcpy.p0.p0.i64(ptr align 8 %hostNoBrackets_20, ptr align 8 %ref.tmp, i64 16, i1 false)
  br label %if.end

if.else:                                          ; preds = %invoke.cont9, %invoke.cont5, %invoke.cont2
  %host_21 = getelementptr inbounds %"class.proxygen::ParseURL", ptr %this1, i32 0, i32 3
  %hostNoBrackets_22 = getelementptr inbounds %"class.proxygen::ParseURL", ptr %this1, i32 0, i32 4
  call void @llvm.memcpy.p0.p0.i64(ptr align 8 %hostNoBrackets_22, ptr align 8 %host_21, i64 16, i1 false)
  br label %if.end

if.end:                                           ; preds = %if.else, %invoke.cont18
  br label %if.end23

if.end23:                                         ; preds = %if.end, %invoke.cont
  ret void

terminate.lpad:                                   ; preds = %invoke.cont16, %if.then13, %land.lhs.true7, %land.lhs.true, %if.then, %entry
  %6 = landingpad { ptr, i32 }
          catch ptr null
  %7 = extractvalue { ptr, i32 } %6, 0
  call void @__clang_call_terminate(ptr %7) #13
  unreachable
}