; Function Attrs: mustprogress nofree norecurse nosync nounwind willreturn memory(read, argmem: readwrite, inaccessiblemem: none) uwtable
define void @_ZN8proxygen8ParseURL13stripBracketsEv(ptr nocapture noundef nonnull align 8 dereferenceable(148) %this) local_unnamed_addr #7 align 2 personality ptr @__gxx_personality_v0 {
entry:
  %hostNoBrackets_ = getelementptr inbounds i8, ptr %this, i64 80
  %0 = load ptr, ptr %hostNoBrackets_, align 8
  %e_.i = getelementptr inbounds i8, ptr %this, i64 88
  %1 = load ptr, ptr %e_.i, align 8
  %cmp.i = icmp eq ptr %0, %1
  br i1 %cmp.i, label %if.then, label %if.end23

if.then:                                          ; preds = %entry
  %host_ = getelementptr inbounds i8, ptr %this, i64 64
  %2 = load ptr, ptr %host_, align 8
  %e_.i1 = getelementptr inbounds i8, ptr %this, i64 72
  %3 = load ptr, ptr %e_.i1, align 8
  %cmp.i2 = icmp eq ptr %2, %3
  br i1 %cmp.i2, label %if.else, label %land.lhs.true

land.lhs.true:                                    ; preds = %if.then
  %4 = load i8, ptr %2, align 1
  %cmp = icmp eq i8 %4, 91
  br i1 %cmp, label %invoke.cont9, label %if.else

invoke.cont9:                                     ; preds = %land.lhs.true
  %incdec.ptr.i.i.i.i = getelementptr inbounds i8, ptr %3, i64 -1
  %5 = load i8, ptr %incdec.ptr.i.i.i.i, align 1
  %cmp12 = icmp eq i8 %5, 93
  br i1 %cmp12, label %invoke.cont18, label %if.else

invoke.cont18:                                    ; preds = %invoke.cont9
  %sub.ptr.rhs.cast.i = ptrtoint ptr %2 to i64
  %sub.ptr.lhs.cast.i = ptrtoint ptr %3 to i64
  %sub.ptr.sub.i = sub i64 %sub.ptr.lhs.cast.i, %sub.ptr.rhs.cast.i
  %sub = add i64 %sub.ptr.sub.i, -2
  %add.ptr.i = getelementptr inbounds i8, ptr %2, i64 1
  %sub.i = add i64 %sub.ptr.sub.i, -1
  %.sroa.speculated.i = tail call i64 @llvm.umin.i64(i64 %sub.i, i64 %sub)
  %add.ptr.i.i = getelementptr inbounds i8, ptr %add.ptr.i, i64 %.sroa.speculated.i
  store ptr %add.ptr.i, ptr %hostNoBrackets_, align 8
  store ptr %add.ptr.i.i, ptr %e_.i, align 8
  br label %if.end23

if.else:                                          ; preds = %invoke.cont9, %land.lhs.true, %if.then
  tail call void @llvm.memcpy.p0.p0.i64(ptr noundef nonnull align 8 dereferenceable(16) %hostNoBrackets_, ptr noundef nonnull align 8 dereferenceable(16) %host_, i64 16, i1 false)
  br label %if.end23

if.end23:                                         ; preds = %invoke.cont18, %if.else, %entry
  ret void
}